; Function Attrs: nounwind sspstrong uwtable
define dso_local void @tcg_gen_deposit_i32(ptr noundef %0, ptr noundef %1, ptr noundef %2, i32 noundef %3, i32 noundef %4) local_unnamed_addr #2 {
  %6 = icmp samesign ult i32 %3, 32
  tail call void @llvm.assume(i1 %6)
  %7 = icmp ne i32 %4, 0
  tail call void @llvm.assume(i1 %7)
  %8 = add nuw nsw i32 %4, %3
  %9 = icmp samesign ult i32 %8, 33
  tail call void @llvm.assume(i1 %9)
  %10 = icmp eq i32 %4, 32
  br i1 %10, label %11, label %22

11:                                               ; preds = %5
  %.not.i = icmp eq ptr %0, %2
  br i1 %.not.i, label %tcg_gen_mov_i32.exit, label %12

12:                                               ; preds = %11
  %13 = tail call align 8 ptr @llvm.threadlocal.address.p0(ptr align 8 @tcg_ctx)
  %14 = load ptr, ptr %13, align 8
  %15 = ptrtoint ptr %0 to i64
  %16 = getelementptr inbounds nuw i8, ptr %14, i64 %15
  %17 = ptrtoint ptr %16 to i64
  %18 = ptrtoint ptr %2 to i64
  %19 = getelementptr inbounds nuw i8, ptr %14, i64 %18
  %20 = ptrtoint ptr %19 to i64
  %21 = tail call ptr @tcg_gen_op2(i32 noundef 5, i32 noundef 0, i64 noundef %17, i64 noundef %20)
  br label %tcg_gen_mov_i32.exit

22:                                               ; preds = %5
  %23 = icmp eq i32 %3, 0
  br i1 %23, label %24, label %.thread

24:                                               ; preds = %22
  switch i32 %4, label %39 [
    i32 16, label %25
    i32 8, label %25
  ]

25:                                               ; preds = %24, %24
  %26 = zext nneg i32 %4 to i64
  %27 = tail call align 8 ptr @llvm.threadlocal.address.p0(ptr align 8 @tcg_ctx)
  %28 = load ptr, ptr %27, align 8
  %29 = ptrtoint ptr %0 to i64
  %30 = getelementptr inbounds nuw i8, ptr %28, i64 %29
  %31 = ptrtoint ptr %30 to i64
  %32 = ptrtoint ptr %1 to i64
  %33 = getelementptr inbounds nuw i8, ptr %28, i64 %32
  %34 = ptrtoint ptr %33 to i64
  %35 = ptrtoint ptr %2 to i64
  %36 = getelementptr inbounds nuw i8, ptr %28, i64 %35
  %37 = ptrtoint ptr %36 to i64
  %38 = tail call ptr @tcg_gen_op5(i32 noundef 34, i32 noundef 0, i64 noundef %31, i64 noundef %34, i64 noundef %37, i64 noundef 0, i64 noundef range(i64 1, 32) %26)
  br label %tcg_gen_mov_i32.exit

39:                                               ; preds = %24
  %40 = tail call ptr @tcg_temp_ebb_new_i32() #6
  %41 = icmp eq i32 %8, 32
  br i1 %41, label %tcg_gen_shli_i32.exit, label %tcg_gen_rotli_i32.exit

.thread:                                          ; preds = %22
  %42 = tail call ptr @tcg_temp_ebb_new_i32() #6
  %43 = icmp eq i32 %8, 32
  br i1 %43, label %tcg_gen_shli_i32.exit, label %tcg_gen_shli_i32.exit59

tcg_gen_shli_i32.exit:                            ; preds = %.thread, %39
  %44 = phi ptr [ %42, %.thread ], [ %40, %39 ]
  %or.cond.i = icmp samesign ult i32 %4, 32
  tail call void @llvm.assume(i1 %or.cond.i)
  %45 = tail call ptr @tcg_constant_i32(i32 noundef %4) #6
  %46 = tail call align 8 ptr @llvm.threadlocal.address.p0(ptr align 8 @tcg_ctx)
  %47 = load ptr, ptr %46, align 8
  %48 = ptrtoint ptr %44 to i64
  %49 = getelementptr inbounds nuw i8, ptr %47, i64 %48
  %50 = ptrtoint ptr %49 to i64
  %51 = ptrtoint ptr %1 to i64
  %52 = getelementptr inbounds nuw i8, ptr %47, i64 %51
  %53 = ptrtoint ptr %52 to i64
  %54 = ptrtoint ptr %45 to i64
  %55 = getelementptr inbounds nuw i8, ptr %47, i64 %54
  %56 = ptrtoint ptr %55 to i64
  %57 = tail call ptr @tcg_gen_op3(i32 noundef 29, i32 noundef 0, i64 noundef %50, i64 noundef %53, i64 noundef %56)
  tail call void @tcg_gen_extract2_i32(ptr noundef %0, ptr noundef %44, ptr noundef %2, i32 noundef %4)
  br label %88

tcg_gen_rotli_i32.exit:                           ; preds = %39
  tail call void @tcg_gen_extract2_i32(ptr noundef %0, ptr noundef %1, ptr noundef %2, i32 noundef %4)
  %or.cond.i55 = icmp samesign ult i32 %4, 32
  tail call void @llvm.assume(i1 %or.cond.i55)
  %58 = tail call ptr @tcg_constant_i32(i32 noundef %4) #6
  %59 = tail call align 8 ptr @llvm.threadlocal.address.p0(ptr align 8 @tcg_ctx)
  %60 = load ptr, ptr %59, align 8
  %61 = ptrtoint ptr %0 to i64
  %62 = getelementptr inbounds nuw i8, ptr %60, i64 %61
  %63 = ptrtoint ptr %62 to i64
  %64 = ptrtoint ptr %58 to i64
  %65 = getelementptr inbounds nuw i8, ptr %60, i64 %64
  %66 = ptrtoint ptr %65 to i64
  %67 = tail call ptr @tcg_gen_op3(i32 noundef 32, i32 noundef 0, i64 noundef %63, i64 noundef %63, i64 noundef %66)
  br label %88

tcg_gen_shli_i32.exit59:                          ; preds = %.thread
  %notmask = shl nsw i32 -1, %4
  %68 = xor i32 %notmask, -1
  tail call void @tcg_gen_andi_i32(ptr noundef %42, ptr noundef %2, i32 noundef %68)
  %69 = tail call ptr @tcg_constant_i32(i32 noundef %3) #6
  %70 = tail call align 8 ptr @llvm.threadlocal.address.p0(ptr align 8 @tcg_ctx)
  %71 = load ptr, ptr %70, align 8
  %72 = ptrtoint ptr %42 to i64
  %73 = getelementptr inbounds nuw i8, ptr %71, i64 %72
  %74 = ptrtoint ptr %73 to i64
  %75 = ptrtoint ptr %69 to i64
  %76 = getelementptr inbounds nuw i8, ptr %71, i64 %75
  %77 = ptrtoint ptr %76 to i64
  %78 = tail call ptr @tcg_gen_op3(i32 noundef 29, i32 noundef 0, i64 noundef %74, i64 noundef %74, i64 noundef %77)
  %79 = shl i32 %68, %3
  %80 = xor i32 %79, -1
  tail call void @tcg_gen_andi_i32(ptr noundef %0, ptr noundef %1, i32 noundef %80)
  %81 = load ptr, ptr %70, align 8
  %82 = ptrtoint ptr %0 to i64
  %83 = getelementptr inbounds nuw i8, ptr %81, i64 %82
  %84 = ptrtoint ptr %83 to i64
  %85 = getelementptr inbounds nuw i8, ptr %81, i64 %72
  %86 = ptrtoint ptr %85 to i64
  %87 = tail call ptr @tcg_gen_op3(i32 noundef 27, i32 noundef 0, i64 noundef %84, i64 noundef %84, i64 noundef %86)
  br label %88

88:                                               ; preds = %tcg_gen_shli_i32.exit59, %tcg_gen_rotli_i32.exit, %tcg_gen_shli_i32.exit
  %89 = phi ptr [ %42, %tcg_gen_shli_i32.exit59 ], [ %40, %tcg_gen_rotli_i32.exit ], [ %44, %tcg_gen_shli_i32.exit ]
  tail call void @tcg_temp_free_i32(ptr noundef %89) #6
  br label %tcg_gen_mov_i32.exit

tcg_gen_mov_i32.exit:                             ; preds = %12, %11, %88, %25
  ret void
}